target datalayout = "e-m:e-p270:32:32-p271:32:32-p272:64:64-i64:64-i128:128-f80:128-n8:16:32:64-S128"
target triple = "x86_64-pc-linux-gnu"

%struct.agxbuf = type { %union.anon.5 }
%union.anon.5 = type { %struct.anon }
%struct.anon = type { ptr, i64, i64, [7 x i8], i8 }
%struct.boxf = type { %struct.pointf_s, %struct.pointf_s }
%struct.pointf_s = type { double, double }
%struct.Agobj_s = type { %struct.Agtag_s, ptr }
%struct.Agtag_s = type { i32, i64 }
%struct.Agraphinfo_t = type { %struct.Agrec_s, ptr, ptr, %struct.boxf, [4 x %struct.pointf_s], i8, i8, i8, i8, i32, double, double, i16, ptr, ptr, ptr, ptr, i32, ptr, ptr, ptr, ptr, i16, i16, i32, ptr, ptr, ptr, ptr, ptr, i32, ptr, ptr, %struct.nlist_t, ptr, ptr, i32, i32, i8, i8, i32, i32, i32, ptr, ptr, ptr, ptr, i8, i8, i8, i8, i8 }
%struct.Agrec_s = type { ptr, ptr }
%struct.nlist_t = type { ptr, i64 }
%struct.textlabel_t = type { ptr, ptr, ptr, i32, double, %struct.pointf_s, %struct.pointf_s, %struct.pointf_s, %union.anon.6, i8, i8, i8 }
%union.anon.6 = type { %struct.anon.7 }
%struct.anon.7 = type { ptr, i64 }

@.str.48 = private unnamed_addr constant [5 x i8] c"href\00", align 1
@.str.49 = private unnamed_addr constant [8 x i8] c"tooltip\00", align 1
@.str.50 = private unnamed_addr constant [7 x i8] c"target\00", align 1
@.str.51 = private unnamed_addr constant [4 x i8] c"URL\00", align 1

; Function Attrs: nounwind uwtable
define internal ptr @interpretCRNL(ptr noundef %0) #0 {
  %2 = alloca ptr, align 8
  %3 = alloca ptr, align 8
  %4 = alloca ptr, align 8
  %5 = alloca i8, align 1
  %6 = alloca i8, align 1
  store ptr %0, ptr %2, align 8, !tbaa !9
  call void @llvm.lifetime.start.p0(i64 8, ptr %3) #15
  %7 = load ptr, ptr %2, align 8, !tbaa !9
  store ptr %7, ptr %3, align 8, !tbaa !9
  call void @llvm.lifetime.start.p0(i64 8, ptr %4) #15
  %8 = load ptr, ptr %2, align 8, !tbaa !9
  store ptr %8, ptr %4, align 8, !tbaa !9
  call void @llvm.lifetime.start.p0(i64 1, ptr %5) #15
  call void @llvm.lifetime.start.p0(i64 1, ptr %6) #15
  store i8 0, ptr %6, align 1, !tbaa !133
  br label %9

9:                                                ; preds = %41, %1
  %10 = load ptr, ptr %2, align 8, !tbaa !9
  %11 = getelementptr inbounds nuw i8, ptr %10, i32 1
  store ptr %11, ptr %2, align 8, !tbaa !9
  %12 = load i8, ptr %10, align 1, !tbaa !11
  store i8 %12, ptr %5, align 1, !tbaa !11
  %13 = icmp ne i8 %12, 0
  br i1 %13, label %14, label %42

14:                                               ; preds = %9
  %15 = load i8, ptr %6, align 1, !tbaa !133, !range !185, !noundef !186
  %16 = trunc i8 %15 to i1
  br i1 %16, label %17, label %31

17:                                               ; preds = %14
  %18 = load i8, ptr %5, align 1, !tbaa !11
  %19 = sext i8 %18 to i32
  switch i32 %19, label %26 [
    i32 110, label %20
    i32 108, label %20
    i32 114, label %23
  ]

20:                                               ; preds = %17, %17
  %21 = load ptr, ptr %4, align 8, !tbaa !9
  %22 = getelementptr inbounds nuw i8, ptr %21, i32 1
  store ptr %22, ptr %4, align 8, !tbaa !9
  store i8 10, ptr %21, align 1, !tbaa !11
  br label %30

23:                                               ; preds = %17
  %24 = load ptr, ptr %4, align 8, !tbaa !9
  %25 = getelementptr inbounds nuw i8, ptr %24, i32 1
  store ptr %25, ptr %4, align 8, !tbaa !9
  store i8 13, ptr %24, align 1, !tbaa !11
  br label %30

26:                                               ; preds = %17
  %27 = load i8, ptr %5, align 1, !tbaa !11
  %28 = load ptr, ptr %4, align 8, !tbaa !9
  %29 = getelementptr inbounds nuw i8, ptr %28, i32 1
  store ptr %29, ptr %4, align 8, !tbaa !9
  store i8 %27, ptr %28, align 1, !tbaa !11
  br label %30

30:                                               ; preds = %26, %23, %20
  store i8 0, ptr %6, align 1, !tbaa !133
  br label %41

31:                                               ; preds = %14
  %32 = load i8, ptr %5, align 1, !tbaa !11
  %33 = sext i8 %32 to i32
  %34 = icmp eq i32 %33, 92
  br i1 %34, label %35, label %36

35:                                               ; preds = %31
  store i8 1, ptr %6, align 1, !tbaa !133
  br label %40

36:                                               ; preds = %31
  %37 = load i8, ptr %5, align 1, !tbaa !11
  %38 = load ptr, ptr %4, align 8, !tbaa !9
  %39 = getelementptr inbounds nuw i8, ptr %38, i32 1
  store ptr %39, ptr %4, align 8, !tbaa !9
  store i8 %37, ptr %38, align 1, !tbaa !11
  br label %40

40:                                               ; preds = %36, %35
  br label %41

41:                                               ; preds = %40, %30
  br label %9, !llvm.loop !360

42:                                               ; preds = %9
  %43 = load ptr, ptr %4, align 8, !tbaa !9
  store i8 0, ptr %43, align 1, !tbaa !11
  %44 = load ptr, ptr %3, align 8, !tbaa !9
  call void @llvm.lifetime.end.p0(i64 1, ptr %6) #15
  call void @llvm.lifetime.end.p0(i64 1, ptr %5) #15
  call void @llvm.lifetime.end.p0(i64 8, ptr %4) #15
  call void @llvm.lifetime.end.p0(i64 8, ptr %3) #15
  ret ptr %44
}

; Function Attrs: inlinehint nounwind uwtable
define internal void @agxbfree(ptr noundef %0) #3 {
  %2 = alloca ptr, align 8
  store ptr %0, ptr %2, align 8, !tbaa !8
  %3 = load ptr, ptr %2, align 8, !tbaa !8
  %4 = getelementptr inbounds nuw %struct.agxbuf, ptr %3, i32 0, i32 0
  %5 = getelementptr inbounds nuw %struct.anon, ptr %4, i32 0, i32 4
  %6 = load i8, ptr %5, align 1, !tbaa !11
  %7 = zext i8 %6 to i32
  %8 = icmp eq i32 %7, 255
  br i1 %8, label %9, label %14

9:                                                ; preds = %1
  %10 = load ptr, ptr %2, align 8, !tbaa !8
  %11 = getelementptr inbounds nuw %struct.agxbuf, ptr %10, i32 0, i32 0
  %12 = getelementptr inbounds nuw %struct.anon, ptr %11, i32 0, i32 0
  %13 = load ptr, ptr %12, align 8, !tbaa !11
  call void @free(ptr noundef %13) #15
  br label %14

14:                                               ; preds = %9, %1
  ret void
}

; Function Attrs: nounwind uwtable
define internal ptr @preprocessTooltip(ptr noundef %0, ptr noundef %1) #0 {
  %3 = alloca ptr, align 8
  %4 = alloca ptr, align 8
  %5 = alloca ptr, align 8
  %6 = alloca i32, align 4
  %7 = alloca ptr, align 8
  store ptr %0, ptr %3, align 8, !tbaa !9
  store ptr %1, ptr %4, align 8, !tbaa !8
  call void @llvm.lifetime.start.p0(i64 8, ptr %5) #15
  %8 = load ptr, ptr %4, align 8, !tbaa !8
  %9 = call ptr @agroot(ptr noundef %8)
  store ptr %9, ptr %5, align 8, !tbaa !3
  call void @llvm.lifetime.start.p0(i64 4, ptr %6) #15
  %10 = load ptr, ptr %5, align 8, !tbaa !3
  %11 = getelementptr inbounds nuw %struct.Agobj_s, ptr %10, i32 0, i32 1
  %12 = load ptr, ptr %11, align 8, !tbaa !82
  %13 = getelementptr inbounds nuw %struct.Agraphinfo_t, ptr %12, i32 0, i32 8
  %14 = load i8, ptr %13, align 1, !tbaa !359
  %15 = zext i8 %14 to i32
  store i32 %15, ptr %6, align 4, !tbaa !44
  call void @llvm.lifetime.start.p0(i64 8, ptr %7) #15
  %16 = load i32, ptr %6, align 4, !tbaa !44
  switch i32 %16, label %20 [
    i32 1, label %17
  ]

17:                                               ; preds = %2
  %18 = load ptr, ptr %3, align 8, !tbaa !9
  %19 = call ptr @latin1ToUTF8(ptr noundef %18)
  store ptr %19, ptr %7, align 8, !tbaa !9
  br label %24

20:                                               ; preds = %2
  %21 = load ptr, ptr %3, align 8, !tbaa !9
  %22 = load ptr, ptr %5, align 8, !tbaa !3
  %23 = call ptr @htmlEntityUTF8(ptr noundef %21, ptr noundef %22)
  store ptr %23, ptr %7, align 8, !tbaa !9
  br label %24

24:                                               ; preds = %20, %17
  %25 = load ptr, ptr %7, align 8, !tbaa !9
  %26 = call ptr @interpretCRNL(ptr noundef %25)
  call void @llvm.lifetime.end.p0(i64 8, ptr %7) #15
  call void @llvm.lifetime.end.p0(i64 4, ptr %6) #15
  call void @llvm.lifetime.end.p0(i64 8, ptr %5) #15
  ret ptr %26
}

; Function Attrs: nounwind uwtable
define internal void @initObjMapData(ptr noundef %0, ptr noundef %1, ptr noundef %2) #0 {
  %4 = alloca ptr, align 8
  %5 = alloca ptr, align 8
  %6 = alloca ptr, align 8
  %7 = alloca ptr, align 8
  %8 = alloca ptr, align 8
  %9 = alloca ptr, align 8
  %10 = alloca ptr, align 8
  %11 = alloca ptr, align 8
  %12 = alloca %struct.agxbuf, align 8
  store ptr %0, ptr %4, align 8, !tbaa !12
  store ptr %1, ptr %5, align 8, !tbaa !221
  store ptr %2, ptr %6, align 8, !tbaa !8
  call void @llvm.lifetime.start.p0(i64 8, ptr %7) #15
  call void @llvm.lifetime.start.p0(i64 8, ptr %8) #15
  %13 = load ptr, ptr %6, align 8, !tbaa !8
  %14 = call ptr @agget(ptr noundef %13, ptr noundef @.str.48)
  store ptr %14, ptr %8, align 8, !tbaa !9
  call void @llvm.lifetime.start.p0(i64 8, ptr %9) #15
  %15 = load ptr, ptr %6, align 8, !tbaa !8
  %16 = call ptr @agget(ptr noundef %15, ptr noundef @.str.49)
  store ptr %16, ptr %9, align 8, !tbaa !9
  call void @llvm.lifetime.start.p0(i64 8, ptr %10) #15
  %17 = load ptr, ptr %6, align 8, !tbaa !8
  %18 = call ptr @agget(ptr noundef %17, ptr noundef @.str.50)
  store ptr %18, ptr %10, align 8, !tbaa !9
  call void @llvm.lifetime.start.p0(i64 8, ptr %11) #15
  call void @llvm.lifetime.start.p0(i64 32, ptr %12) #15
  call void @llvm.memset.p0.i64(ptr align 8 %12, i8 0, i64 32, i1 false)
  %19 = load ptr, ptr %5, align 8, !tbaa !221
  %20 = icmp ne ptr %19, null
  br i1 %20, label %21, label %25

21:                                               ; preds = %3
  %22 = load ptr, ptr %5, align 8, !tbaa !221
  %23 = getelementptr inbounds nuw %struct.textlabel_t, ptr %22, i32 0, i32 0
  %24 = load ptr, ptr %23, align 8, !tbaa !222
  store ptr %24, ptr %7, align 8, !tbaa !9
  br label %26

25:                                               ; preds = %3
  store ptr null, ptr %7, align 8, !tbaa !9
  br label %26

26:                                               ; preds = %25, %21
  %27 = load ptr, ptr %8, align 8, !tbaa !9
  %28 = icmp ne ptr %27, null
  br i1 %28, label %29, label %33

29:                                               ; preds = %26
  %30 = load ptr, ptr %8, align 8, !tbaa !9
  %31 = load i8, ptr %30, align 1, !tbaa !11
  %32 = icmp ne i8 %31, 0
  br i1 %32, label %36, label %33

33:                                               ; preds = %29, %26
  %34 = load ptr, ptr %6, align 8, !tbaa !8
  %35 = call ptr @agget(ptr noundef %34, ptr noundef @.str.51)
  store ptr %35, ptr %8, align 8, !tbaa !9
  br label %36

36:                                               ; preds = %33, %29
  %37 = load ptr, ptr %4, align 8, !tbaa !12
  %38 = load ptr, ptr %6, align 8, !tbaa !8
  %39 = call ptr @getObjId(ptr noundef %37, ptr noundef %38, ptr noundef %12)
  store ptr %39, ptr %11, align 8, !tbaa !9
  %40 = load ptr, ptr %9, align 8, !tbaa !9
  %41 = icmp ne ptr %40, null
  br i1 %41, label %42, label %46

42:                                               ; preds = %36
  %43 = load ptr, ptr %9, align 8, !tbaa !9
  %44 = load ptr, ptr %6, align 8, !tbaa !8
  %45 = call ptr @preprocessTooltip(ptr noundef %43, ptr noundef %44)
  store ptr %45, ptr %9, align 8, !tbaa !9
  br label %46

46:                                               ; preds = %42, %36
  %47 = load ptr, ptr %4, align 8, !tbaa !12
  %48 = load ptr, ptr %7, align 8, !tbaa !9
  %49 = load ptr, ptr %8, align 8, !tbaa !9
  %50 = load ptr, ptr %9, align 8, !tbaa !9
  %51 = load ptr, ptr %10, align 8, !tbaa !9
  %52 = load ptr, ptr %11, align 8, !tbaa !9
  %53 = load ptr, ptr %6, align 8, !tbaa !8
  %54 = call i32 @initMapData(ptr noundef %47, ptr noundef %48, ptr noundef %49, ptr noundef %50, ptr noundef %51, ptr noundef %52, ptr noundef %53)
  %55 = load ptr, ptr %9, align 8, !tbaa !9
  call void @free(ptr noundef %55) #15
  call void @agxbfree(ptr noundef %12)
  call void @llvm.lifetime.end.p0(i64 32, ptr %12) #15
  call void @llvm.lifetime.end.p0(i64 8, ptr %11) #15
  call void @llvm.lifetime.end.p0(i64 8, ptr %10) #15
  call void @llvm.lifetime.end.p0(i64 8, ptr %9) #15
  call void @llvm.lifetime.end.p0(i64 8, ptr %8) #15
  call void @llvm.lifetime.end.p0(i64 8, ptr %7) #15
  ret void
}