; Function Attrs: nounwind uwtable
define internal fastcc void @initObjMapData(ptr noundef readonly captures(none) %0, ptr noundef readonly captures(address_is_null) %1, ptr noundef %2) unnamed_addr #0 {
  %4 = alloca %struct.agxbuf, align 8
  %5 = tail call ptr @agget(ptr noundef %2, ptr noundef nonnull @.str.48) #27
  %6 = tail call ptr @agget(ptr noundef %2, ptr noundef nonnull @.str.49) #27
  %7 = tail call ptr @agget(ptr noundef %2, ptr noundef nonnull @.str.50) #27
  call void @llvm.lifetime.start.p0(i64 32, ptr nonnull %4) #27
  call void @llvm.memset.p0.i64(ptr noundef nonnull align 8 dereferenceable(32) %4, i8 0, i64 32, i1 false)
  %.not = icmp eq ptr %1, null
  br i1 %.not, label %10, label %8

8:                                                ; preds = %3
  %9 = load ptr, ptr %1, align 8, !tbaa !246
  br label %10

10:                                               ; preds = %3, %8
  %.0 = phi ptr [ %9, %8 ], [ null, %3 ]
  %.not26 = icmp eq ptr %5, null
  br i1 %.not26, label %13, label %11

11:                                               ; preds = %10
  %12 = load i8, ptr %5, align 1, !tbaa !3
  %.not27 = icmp eq i8 %12, 0
  br i1 %.not27, label %13, label %15

13:                                               ; preds = %11, %10
  %14 = tail call ptr @agget(ptr noundef %2, ptr noundef nonnull @.str.51) #27
  br label %15

15:                                               ; preds = %13, %11
  %.021 = phi ptr [ %5, %11 ], [ %14, %13 ]
  %16 = call ptr @getObjId(ptr noundef %0, ptr noundef %2, ptr noundef nonnull %4)
  %.not28 = icmp eq ptr %6, null
  br i1 %.not28, label %41, label %17

17:                                               ; preds = %15
  %18 = call ptr @agroot(ptr noundef %2) #27
  %19 = getelementptr inbounds nuw i8, ptr %18, i64 16
  %20 = load ptr, ptr %19, align 8, !tbaa !76
  %21 = getelementptr inbounds nuw i8, ptr %20, i64 131
  %22 = load i8, ptr %21, align 1, !tbaa !354
  %cond.i = icmp eq i8 %22, 1
  br i1 %cond.i, label %23, label %25

23:                                               ; preds = %17
  %24 = call ptr @latin1ToUTF8(ptr noundef nonnull %6) #27
  br label %27

25:                                               ; preds = %17
  %26 = call ptr @htmlEntityUTF8(ptr noundef nonnull %6, ptr noundef nonnull %18) #27
  br label %27

27:                                               ; preds = %25, %23
  %.0.i = phi ptr [ %24, %23 ], [ %26, %25 ]
  %28 = load i8, ptr %.0.i, align 1, !tbaa !3
  %.not17.i.i = icmp eq i8 %28, 0
  br i1 %.not17.i.i, label %preprocessTooltip.exit, label %.lr.ph.i.i

.lr.ph.i.i:                                       ; preds = %27, %39
  %29 = phi i8 [ %40, %39 ], [ %28, %27 ]
  %.pn.i.i = phi ptr [ %30, %39 ], [ %.0.i, %27 ]
  %.019.i.i = phi i1 [ %.1.i.i, %39 ], [ false, %27 ]
  %.01418.i.i = phi ptr [ %.2.i.i, %39 ], [ %.0.i, %27 ]
  %30 = getelementptr inbounds nuw i8, ptr %.pn.i.i, i64 1
  br i1 %.019.i.i, label %31, label %35

31:                                               ; preds = %.lr.ph.i.i
  switch i8 %29, label %33 [
    i8 110, label %34
    i8 108, label %34
    i8 114, label %32
  ]

32:                                               ; preds = %31
  br label %34

33:                                               ; preds = %31
  br label %34

34:                                               ; preds = %33, %32, %31, %31
  %.sink.i.i = phi i8 [ %29, %33 ], [ 13, %32 ], [ 10, %31 ], [ 10, %31 ]
  store i8 %.sink.i.i, ptr %.01418.i.i, align 1, !tbaa !3
  %.115.i.i = getelementptr inbounds nuw i8, ptr %.01418.i.i, i64 1
  br label %39

35:                                               ; preds = %.lr.ph.i.i
  %36 = icmp eq i8 %29, 92
  br i1 %36, label %39, label %37

37:                                               ; preds = %35
  %38 = getelementptr inbounds nuw i8, ptr %.01418.i.i, i64 1
  store i8 %29, ptr %.01418.i.i, align 1, !tbaa !3
  br label %39

39:                                               ; preds = %37, %35, %34
  %.2.i.i = phi ptr [ %.115.i.i, %34 ], [ %38, %37 ], [ %.01418.i.i, %35 ]
  %.1.i.i = phi i1 [ false, %34 ], [ false, %37 ], [ true, %35 ]
  %40 = load i8, ptr %30, align 1, !tbaa !3
  %.not.i.i = icmp eq i8 %40, 0
  br i1 %.not.i.i, label %preprocessTooltip.exit, label %.lr.ph.i.i, !llvm.loop !355

preprocessTooltip.exit:                           ; preds = %39, %27
  %.014.lcssa.i.i = phi ptr [ %.0.i, %27 ], [ %.2.i.i, %39 ]
  store i8 0, ptr %.014.lcssa.i.i, align 1, !tbaa !3
  br label %41

41:                                               ; preds = %preprocessTooltip.exit, %15
  %.022 = phi ptr [ %.0.i, %preprocessTooltip.exit ], [ null, %15 ]
  %42 = call i32 @initMapData(ptr noundef %0, ptr noundef %.0, ptr noundef %.021, ptr noundef %.022, ptr noundef %7, ptr noundef %16, ptr noundef %2)
  call void @free(ptr noundef %.022) #27
  %43 = getelementptr inbounds nuw i8, ptr %4, i64 31
  %.val29 = load i8, ptr %43, align 1, !tbaa !3
  %44 = icmp eq i8 %.val29, -1
  br i1 %44, label %45, label %agxbfree.exit

45:                                               ; preds = %41
  %.val = load ptr, ptr %4, align 8
  call void @free(ptr noundef %.val) #27
  br label %agxbfree.exit

agxbfree.exit:                                    ; preds = %41, %45
  call void @llvm.lifetime.end.p0(i64 32, ptr nonnull %4) #27
  ret void
}